target datalayout = "e-m:e-p270:32:32-p271:32:32-p272:64:64-i64:64-i128:128-f80:128-n8:16:32:64-S128"
target triple = "x86_64-pc-linux-gnu"

@.str.13 = private unnamed_addr constant [17 x i8] c"CVodeGetNumSteps\00", align 1
@.str.19 = private unnamed_addr constant [18 x i8] c"CVodeGetWorkSpace\00", align 1
@.str.20 = private unnamed_addr constant [20 x i8] c"CVodeGetNumRhsEvals\00", align 1
@.str.21 = private unnamed_addr constant [25 x i8] c"CVodeGetNumLinSolvSetups\00", align 1
@.str.22 = private unnamed_addr constant [24 x i8] c"CVodeGetNumErrTestFails\00", align 1
@.str.23 = private unnamed_addr constant [27 x i8] c"CVodeGetNumNonlinSolvIters\00", align 1
@.str.24 = private unnamed_addr constant [31 x i8] c"CVodeGetNumNonlinSolvConvFails\00", align 1
@.str.25 = private unnamed_addr constant [21 x i8] c"CVodeGetLinWorkSpace\00", align 1
@.str.26 = private unnamed_addr constant [20 x i8] c"CVodeGetNumLinIters\00", align 1
@.str.27 = private unnamed_addr constant [21 x i8] c"CVodeGetNumPrecEvals\00", align 1
@.str.28 = private unnamed_addr constant [22 x i8] c"CVodeGetNumPrecSolves\00", align 1
@.str.29 = private unnamed_addr constant [24 x i8] c"CVodeGetNumLinConvFails\00", align 1
@.str.30 = private unnamed_addr constant [23 x i8] c"CVodeGetNumLinRhsEvals\00", align 1
@.str.31 = private unnamed_addr constant [23 x i8] c"\0AFinal Statistics.. \0A\0A\00", align 1
@.str.32 = private unnamed_addr constant [35 x i8] c"lenrw   = %5ld     leniw   = %5ld\0A\00", align 1
@.str.33 = private unnamed_addr constant [35 x i8] c"lenrwLS = %5ld     leniwLS = %5ld\0A\00", align 1
@.str.34 = private unnamed_addr constant [16 x i8] c"nst     = %5ld\0A\00", align 1
@.str.35 = private unnamed_addr constant [35 x i8] c"nfe     = %5ld     nfeLS   = %5ld\0A\00", align 1
@.str.36 = private unnamed_addr constant [35 x i8] c"nni     = %5ld     nli     = %5ld\0A\00", align 1
@.str.37 = private unnamed_addr constant [35 x i8] c"nsetups = %5ld     netf    = %5ld\0A\00", align 1
@.str.38 = private unnamed_addr constant [35 x i8] c"npe     = %5ld     nps     = %5ld\0A\00", align 1
@.str.39 = private unnamed_addr constant [36 x i8] c"ncfn    = %5ld     ncfl    = %5ld\0A\0A\00", align 1
@stderr = external global ptr, align 8
@.str.40 = private unnamed_addr constant [55 x i8] c"\0ASUNDIALS_ERROR: %s() failed - returned NULL pointer\0A\0A\00", align 1
@.str.41 = private unnamed_addr constant [48 x i8] c"\0ASUNDIALS_ERROR: %s() failed with retval = %d\0A\0A\00", align 1
@.str.42 = private unnamed_addr constant [53 x i8] c"\0AMEMORY_ERROR: %s() failed - returned NULL pointer\0A\0A\00", align 1

; Function Attrs: nounwind uwtable
define internal i32 @check_retval(ptr noundef %0, ptr noundef %1, i32 noundef %2) #0 {
  %4 = alloca i32, align 4
  %5 = alloca ptr, align 8
  %6 = alloca ptr, align 8
  %7 = alloca i32, align 4
  %8 = alloca ptr, align 8
  %9 = alloca i32, align 4
  store ptr %0, ptr %5, align 8, !tbaa !9
  store ptr %1, ptr %6, align 8, !tbaa !21
  store i32 %2, ptr %7, align 4, !tbaa !12
  call void @llvm.lifetime.start.p0(i64 8, ptr %8) #6
  %10 = load i32, ptr %7, align 4, !tbaa !12
  %11 = icmp eq i32 %10, 0
  br i1 %11, label %12, label %19

12:                                               ; preds = %3
  %13 = load ptr, ptr %5, align 8, !tbaa !9
  %14 = icmp eq ptr %13, null
  br i1 %14, label %15, label %19

15:                                               ; preds = %12
  %16 = load ptr, ptr @stderr, align 8, !tbaa !23
  %17 = load ptr, ptr %6, align 8, !tbaa !21
  %18 = call i32 (ptr, ptr, ...) @fprintf(ptr noundef %16, ptr noundef @.str.40, ptr noundef %17) #6
  store i32 1, ptr %4, align 4
  store i32 1, ptr %9, align 4
  br label %47

19:                                               ; preds = %12, %3
  %20 = load i32, ptr %7, align 4, !tbaa !12
  %21 = icmp eq i32 %20, 1
  br i1 %21, label %22, label %34

22:                                               ; preds = %19
  %23 = load ptr, ptr %5, align 8, !tbaa !9
  store ptr %23, ptr %8, align 8, !tbaa !25
  %24 = load ptr, ptr %8, align 8, !tbaa !25
  %25 = load i32, ptr %24, align 4, !tbaa !12
  %26 = icmp slt i32 %25, 0
  br i1 %26, label %27, label %33

27:                                               ; preds = %22
  %28 = load ptr, ptr @stderr, align 8, !tbaa !23
  %29 = load ptr, ptr %6, align 8, !tbaa !21
  %30 = load ptr, ptr %8, align 8, !tbaa !25
  %31 = load i32, ptr %30, align 4, !tbaa !12
  %32 = call i32 (ptr, ptr, ...) @fprintf(ptr noundef %28, ptr noundef @.str.41, ptr noundef %29, i32 noundef %31) #6
  store i32 1, ptr %4, align 4
  store i32 1, ptr %9, align 4
  br label %47

33:                                               ; preds = %22
  br label %45

34:                                               ; preds = %19
  %35 = load i32, ptr %7, align 4, !tbaa !12
  %36 = icmp eq i32 %35, 2
  br i1 %36, label %37, label %44

37:                                               ; preds = %34
  %38 = load ptr, ptr %5, align 8, !tbaa !9
  %39 = icmp eq ptr %38, null
  br i1 %39, label %40, label %44

40:                                               ; preds = %37
  %41 = load ptr, ptr @stderr, align 8, !tbaa !23
  %42 = load ptr, ptr %6, align 8, !tbaa !21
  %43 = call i32 (ptr, ptr, ...) @fprintf(ptr noundef %41, ptr noundef @.str.42, ptr noundef %42) #6
  store i32 1, ptr %4, align 4
  store i32 1, ptr %9, align 4
  br label %47

44:                                               ; preds = %37, %34
  br label %45

45:                                               ; preds = %44, %33
  br label %46

46:                                               ; preds = %45
  store i32 0, ptr %4, align 4
  store i32 1, ptr %9, align 4
  br label %47

47:                                               ; preds = %46, %40, %27, %15
  call void @llvm.lifetime.end.p0(i64 8, ptr %8) #6
  %48 = load i32, ptr %4, align 4
  ret i32 %48
}

; Function Attrs: nounwind uwtable
define internal void @PrintFinalStats(ptr noundef %0) #0 {
  %2 = alloca ptr, align 8
  %3 = alloca i64, align 8
  %4 = alloca i64, align 8
  %5 = alloca i64, align 8
  %6 = alloca i64, align 8
  %7 = alloca i64, align 8
  %8 = alloca i64, align 8
  %9 = alloca i64, align 8
  %10 = alloca i64, align 8
  %11 = alloca i64, align 8
  %12 = alloca i64, align 8
  %13 = alloca i64, align 8
  %14 = alloca i64, align 8
  %15 = alloca i64, align 8
  %16 = alloca i64, align 8
  %17 = alloca i64, align 8
  %18 = alloca i32, align 4
  store ptr %0, ptr %2, align 8, !tbaa !9
  call void @llvm.lifetime.start.p0(i64 8, ptr %3) #6
  call void @llvm.lifetime.start.p0(i64 8, ptr %4) #6
  call void @llvm.lifetime.start.p0(i64 8, ptr %5) #6
  call void @llvm.lifetime.start.p0(i64 8, ptr %6) #6
  call void @llvm.lifetime.start.p0(i64 8, ptr %7) #6
  call void @llvm.lifetime.start.p0(i64 8, ptr %8) #6
  call void @llvm.lifetime.start.p0(i64 8, ptr %9) #6
  call void @llvm.lifetime.start.p0(i64 8, ptr %10) #6
  call void @llvm.lifetime.start.p0(i64 8, ptr %11) #6
  call void @llvm.lifetime.start.p0(i64 8, ptr %12) #6
  call void @llvm.lifetime.start.p0(i64 8, ptr %13) #6
  call void @llvm.lifetime.start.p0(i64 8, ptr %14) #6
  call void @llvm.lifetime.start.p0(i64 8, ptr %15) #6
  call void @llvm.lifetime.start.p0(i64 8, ptr %16) #6
  call void @llvm.lifetime.start.p0(i64 8, ptr %17) #6
  call void @llvm.lifetime.start.p0(i64 4, ptr %18) #6
  %19 = load ptr, ptr %2, align 8, !tbaa !9
  %20 = call i32 @CVodeGetWorkSpace(ptr noundef %19, ptr noundef %3, ptr noundef %4)
  store i32 %20, ptr %18, align 4, !tbaa !12
  %21 = call i32 @check_retval(ptr noundef %18, ptr noundef @.str.19, i32 noundef 1)
  %22 = load ptr, ptr %2, align 8, !tbaa !9
  %23 = call i32 @CVodeGetNumSteps(ptr noundef %22, ptr noundef %7)
  store i32 %23, ptr %18, align 4, !tbaa !12
  %24 = call i32 @check_retval(ptr noundef %18, ptr noundef @.str.13, i32 noundef 1)
  %25 = load ptr, ptr %2, align 8, !tbaa !9
  %26 = call i32 @CVodeGetNumRhsEvals(ptr noundef %25, ptr noundef %8)
  store i32 %26, ptr %18, align 4, !tbaa !12
  %27 = call i32 @check_retval(ptr noundef %18, ptr noundef @.str.20, i32 noundef 1)
  %28 = load ptr, ptr %2, align 8, !tbaa !9
  %29 = call i32 @CVodeGetNumLinSolvSetups(ptr noundef %28, ptr noundef %9)
  store i32 %29, ptr %18, align 4, !tbaa !12
  %30 = call i32 @check_retval(ptr noundef %18, ptr noundef @.str.21, i32 noundef 1)
  %31 = load ptr, ptr %2, align 8, !tbaa !9
  %32 = call i32 @CVodeGetNumErrTestFails(ptr noundef %31, ptr noundef %12)
  store i32 %32, ptr %18, align 4, !tbaa !12
  %33 = call i32 @check_retval(ptr noundef %18, ptr noundef @.str.22, i32 noundef 1)
  %34 = load ptr, ptr %2, align 8, !tbaa !9
  %35 = call i32 @CVodeGetNumNonlinSolvIters(ptr noundef %34, ptr noundef %10)
  store i32 %35, ptr %18, align 4, !tbaa !12
  %36 = call i32 @check_retval(ptr noundef %18, ptr noundef @.str.23, i32 noundef 1)
  %37 = load ptr, ptr %2, align 8, !tbaa !9
  %38 = call i32 @CVodeGetNumNonlinSolvConvFails(ptr noundef %37, ptr noundef %11)
  store i32 %38, ptr %18, align 4, !tbaa !12
  %39 = call i32 @check_retval(ptr noundef %18, ptr noundef @.str.24, i32 noundef 1)
  %40 = load ptr, ptr %2, align 8, !tbaa !9
  %41 = call i32 @CVodeGetLinWorkSpace(ptr noundef %40, ptr noundef %5, ptr noundef %6)
  store i32 %41, ptr %18, align 4, !tbaa !12
  %42 = call i32 @check_retval(ptr noundef %18, ptr noundef @.str.25, i32 noundef 1)
  %43 = load ptr, ptr %2, align 8, !tbaa !9
  %44 = call i32 @CVodeGetNumLinIters(ptr noundef %43, ptr noundef %13)
  store i32 %44, ptr %18, align 4, !tbaa !12
  %45 = call i32 @check_retval(ptr noundef %18, ptr noundef @.str.26, i32 noundef 1)
  %46 = load ptr, ptr %2, align 8, !tbaa !9
  %47 = call i32 @CVodeGetNumPrecEvals(ptr noundef %46, ptr noundef %14)
  store i32 %47, ptr %18, align 4, !tbaa !12
  %48 = call i32 @check_retval(ptr noundef %18, ptr noundef @.str.27, i32 noundef 1)
  %49 = load ptr, ptr %2, align 8, !tbaa !9
  %50 = call i32 @CVodeGetNumPrecSolves(ptr noundef %49, ptr noundef %15)
  store i32 %50, ptr %18, align 4, !tbaa !12
  %51 = call i32 @check_retval(ptr noundef %18, ptr noundef @.str.28, i32 noundef 1)
  %52 = load ptr, ptr %2, align 8, !tbaa !9
  %53 = call i32 @CVodeGetNumLinConvFails(ptr noundef %52, ptr noundef %16)
  store i32 %53, ptr %18, align 4, !tbaa !12
  %54 = call i32 @check_retval(ptr noundef %18, ptr noundef @.str.29, i32 noundef 1)
  %55 = load ptr, ptr %2, align 8, !tbaa !9
  %56 = call i32 @CVodeGetNumLinRhsEvals(ptr noundef %55, ptr noundef %17)
  store i32 %56, ptr %18, align 4, !tbaa !12
  %57 = call i32 @check_retval(ptr noundef %18, ptr noundef @.str.30, i32 noundef 1)
  %58 = call i32 (ptr, ...) @printf(ptr noundef @.str.31)
  %59 = load i64, ptr %3, align 8, !tbaa !42
  %60 = load i64, ptr %4, align 8, !tbaa !42
  %61 = call i32 (ptr, ...) @printf(ptr noundef @.str.32, i64 noundef %59, i64 noundef %60)
  %62 = load i64, ptr %5, align 8, !tbaa !42
  %63 = load i64, ptr %6, align 8, !tbaa !42
  %64 = call i32 (ptr, ...) @printf(ptr noundef @.str.33, i64 noundef %62, i64 noundef %63)
  %65 = load i64, ptr %7, align 8, !tbaa !42
  %66 = call i32 (ptr, ...) @printf(ptr noundef @.str.34, i64 noundef %65)
  %67 = load i64, ptr %8, align 8, !tbaa !42
  %68 = load i64, ptr %17, align 8, !tbaa !42
  %69 = call i32 (ptr, ...) @printf(ptr noundef @.str.35, i64 noundef %67, i64 noundef %68)
  %70 = load i64, ptr %10, align 8, !tbaa !42
  %71 = load i64, ptr %13, align 8, !tbaa !42
  %72 = call i32 (ptr, ...) @printf(ptr noundef @.str.36, i64 noundef %70, i64 noundef %71)
  %73 = load i64, ptr %9, align 8, !tbaa !42
  %74 = load i64, ptr %12, align 8, !tbaa !42
  %75 = call i32 (ptr, ...) @printf(ptr noundef @.str.37, i64 noundef %73, i64 noundef %74)
  %76 = load i64, ptr %14, align 8, !tbaa !42
  %77 = load i64, ptr %15, align 8, !tbaa !42
  %78 = call i32 (ptr, ...) @printf(ptr noundef @.str.38, i64 noundef %76, i64 noundef %77)
  %79 = load i64, ptr %11, align 8, !tbaa !42
  %80 = load i64, ptr %16, align 8, !tbaa !42
  %81 = call i32 (ptr, ...) @printf(ptr noundef @.str.39, i64 noundef %79, i64 noundef %80)
  call void @llvm.lifetime.end.p0(i64 4, ptr %18) #6
  call void @llvm.lifetime.end.p0(i64 8, ptr %17) #6
  call void @llvm.lifetime.end.p0(i64 8, ptr %16) #6
  call void @llvm.lifetime.end.p0(i64 8, ptr %15) #6
  call void @llvm.lifetime.end.p0(i64 8, ptr %14) #6
  call void @llvm.lifetime.end.p0(i64 8, ptr %13) #6
  call void @llvm.lifetime.end.p0(i64 8, ptr %12) #6
  call void @llvm.lifetime.end.p0(i64 8, ptr %11) #6
  call void @llvm.lifetime.end.p0(i64 8, ptr %10) #6
  call void @llvm.lifetime.end.p0(i64 8, ptr %9) #6
  call void @llvm.lifetime.end.p0(i64 8, ptr %8) #6
  call void @llvm.lifetime.end.p0(i64 8, ptr %7) #6
  call void @llvm.lifetime.end.p0(i64 8, ptr %6) #6
  call void @llvm.lifetime.end.p0(i64 8, ptr %5) #6
  call void @llvm.lifetime.end.p0(i64 8, ptr %4) #6
  call void @llvm.lifetime.end.p0(i64 8, ptr %3) #6
  ret void
}