; Function Attrs: nounwind uwtable
define internal fastcc void @PrintFinalStats(ptr noundef %0) unnamed_addr #0 {
  %2 = alloca i64, align 8
  %3 = alloca i64, align 8
  %4 = alloca i64, align 8
  %5 = alloca i64, align 8
  %6 = alloca i64, align 8
  %7 = alloca i64, align 8
  %8 = alloca i64, align 8
  %9 = alloca i64, align 8
  %10 = alloca i64, align 8
  %11 = alloca i64, align 8
  %12 = alloca i64, align 8
  %13 = alloca i64, align 8
  %14 = alloca i64, align 8
  %15 = alloca i64, align 8
  %16 = alloca i64, align 8
  call void @llvm.lifetime.start.p0(i64 8, ptr nonnull %2) #9
  call void @llvm.lifetime.start.p0(i64 8, ptr nonnull %3) #9
  call void @llvm.lifetime.start.p0(i64 8, ptr nonnull %4) #9
  call void @llvm.lifetime.start.p0(i64 8, ptr nonnull %5) #9
  call void @llvm.lifetime.start.p0(i64 8, ptr nonnull %6) #9
  call void @llvm.lifetime.start.p0(i64 8, ptr nonnull %7) #9
  call void @llvm.lifetime.start.p0(i64 8, ptr nonnull %8) #9
  call void @llvm.lifetime.start.p0(i64 8, ptr nonnull %9) #9
  call void @llvm.lifetime.start.p0(i64 8, ptr nonnull %10) #9
  call void @llvm.lifetime.start.p0(i64 8, ptr nonnull %11) #9
  call void @llvm.lifetime.start.p0(i64 8, ptr nonnull %12) #9
  call void @llvm.lifetime.start.p0(i64 8, ptr nonnull %13) #9
  call void @llvm.lifetime.start.p0(i64 8, ptr nonnull %14) #9
  call void @llvm.lifetime.start.p0(i64 8, ptr nonnull %15) #9
  call void @llvm.lifetime.start.p0(i64 8, ptr nonnull %16) #9
  %17 = call i32 @CVodeGetWorkSpace(ptr noundef %0, ptr noundef nonnull %2, ptr noundef nonnull %3) #9
  %18 = icmp slt i32 %17, 0
  br i1 %18, label %19, label %check_retval.exit

19:                                               ; preds = %1
  %20 = load ptr, ptr @stderr, align 8, !tbaa !4
  %21 = call i32 (ptr, ptr, ...) @fprintf(ptr noundef %20, ptr noundef nonnull @.str.41, ptr noundef nonnull @.str.19, i32 noundef %17) #10
  br label %check_retval.exit

check_retval.exit:                                ; preds = %1, %19
  %22 = call i32 @CVodeGetNumSteps(ptr noundef %0, ptr noundef nonnull %6) #9
  %23 = icmp slt i32 %22, 0
  br i1 %23, label %24, label %check_retval.exit14

24:                                               ; preds = %check_retval.exit
  %25 = load ptr, ptr @stderr, align 8, !tbaa !4
  %26 = call i32 (ptr, ptr, ...) @fprintf(ptr noundef %25, ptr noundef nonnull @.str.41, ptr noundef nonnull @.str.13, i32 noundef %22) #10
  br label %check_retval.exit14

check_retval.exit14:                              ; preds = %check_retval.exit, %24
  %27 = call i32 @CVodeGetNumRhsEvals(ptr noundef %0, ptr noundef nonnull %7) #9
  %28 = icmp slt i32 %27, 0
  br i1 %28, label %29, label %check_retval.exit16

29:                                               ; preds = %check_retval.exit14
  %30 = load ptr, ptr @stderr, align 8, !tbaa !4
  %31 = call i32 (ptr, ptr, ...) @fprintf(ptr noundef %30, ptr noundef nonnull @.str.41, ptr noundef nonnull @.str.20, i32 noundef %27) #10
  br label %check_retval.exit16

check_retval.exit16:                              ; preds = %check_retval.exit14, %29
  %32 = call i32 @CVodeGetNumLinSolvSetups(ptr noundef %0, ptr noundef nonnull %8) #9
  %33 = icmp slt i32 %32, 0
  br i1 %33, label %34, label %check_retval.exit18

34:                                               ; preds = %check_retval.exit16
  %35 = load ptr, ptr @stderr, align 8, !tbaa !4
  %36 = call i32 (ptr, ptr, ...) @fprintf(ptr noundef %35, ptr noundef nonnull @.str.41, ptr noundef nonnull @.str.21, i32 noundef %32) #10
  br label %check_retval.exit18

check_retval.exit18:                              ; preds = %check_retval.exit16, %34
  %37 = call i32 @CVodeGetNumErrTestFails(ptr noundef %0, ptr noundef nonnull %11) #9
  %38 = icmp slt i32 %37, 0
  br i1 %38, label %39, label %check_retval.exit20

39:                                               ; preds = %check_retval.exit18
  %40 = load ptr, ptr @stderr, align 8, !tbaa !4
  %41 = call i32 (ptr, ptr, ...) @fprintf(ptr noundef %40, ptr noundef nonnull @.str.41, ptr noundef nonnull @.str.22, i32 noundef %37) #10
  br label %check_retval.exit20

check_retval.exit20:                              ; preds = %check_retval.exit18, %39
  %42 = call i32 @CVodeGetNumNonlinSolvIters(ptr noundef %0, ptr noundef nonnull %9) #9
  %43 = icmp slt i32 %42, 0
  br i1 %43, label %44, label %check_retval.exit22

44:                                               ; preds = %check_retval.exit20
  %45 = load ptr, ptr @stderr, align 8, !tbaa !4
  %46 = call i32 (ptr, ptr, ...) @fprintf(ptr noundef %45, ptr noundef nonnull @.str.41, ptr noundef nonnull @.str.23, i32 noundef %42) #10
  br label %check_retval.exit22

check_retval.exit22:                              ; preds = %check_retval.exit20, %44
  %47 = call i32 @CVodeGetNumNonlinSolvConvFails(ptr noundef %0, ptr noundef nonnull %10) #9
  %48 = icmp slt i32 %47, 0
  br i1 %48, label %49, label %check_retval.exit24

49:                                               ; preds = %check_retval.exit22
  %50 = load ptr, ptr @stderr, align 8, !tbaa !4
  %51 = call i32 (ptr, ptr, ...) @fprintf(ptr noundef %50, ptr noundef nonnull @.str.41, ptr noundef nonnull @.str.24, i32 noundef %47) #10
  br label %check_retval.exit24

check_retval.exit24:                              ; preds = %check_retval.exit22, %49
  %52 = call i32 @CVodeGetLinWorkSpace(ptr noundef %0, ptr noundef nonnull %4, ptr noundef nonnull %5) #9
  %53 = icmp slt i32 %52, 0
  br i1 %53, label %54, label %check_retval.exit26

54:                                               ; preds = %check_retval.exit24
  %55 = load ptr, ptr @stderr, align 8, !tbaa !4
  %56 = call i32 (ptr, ptr, ...) @fprintf(ptr noundef %55, ptr noundef nonnull @.str.41, ptr noundef nonnull @.str.25, i32 noundef %52) #10
  br label %check_retval.exit26

check_retval.exit26:                              ; preds = %check_retval.exit24, %54
  %57 = call i32 @CVodeGetNumLinIters(ptr noundef %0, ptr noundef nonnull %12) #9
  %58 = icmp slt i32 %57, 0
  br i1 %58, label %59, label %check_retval.exit28

59:                                               ; preds = %check_retval.exit26
  %60 = load ptr, ptr @stderr, align 8, !tbaa !4
  %61 = call i32 (ptr, ptr, ...) @fprintf(ptr noundef %60, ptr noundef nonnull @.str.41, ptr noundef nonnull @.str.26, i32 noundef %57) #10
  br label %check_retval.exit28

check_retval.exit28:                              ; preds = %check_retval.exit26, %59
  %62 = call i32 @CVodeGetNumPrecEvals(ptr noundef %0, ptr noundef nonnull %13) #9
  %63 = icmp slt i32 %62, 0
  br i1 %63, label %64, label %check_retval.exit30

64:                                               ; preds = %check_retval.exit28
  %65 = load ptr, ptr @stderr, align 8, !tbaa !4
  %66 = call i32 (ptr, ptr, ...) @fprintf(ptr noundef %65, ptr noundef nonnull @.str.41, ptr noundef nonnull @.str.27, i32 noundef %62) #10
  br label %check_retval.exit30

check_retval.exit30:                              ; preds = %check_retval.exit28, %64
  %67 = call i32 @CVodeGetNumPrecSolves(ptr noundef %0, ptr noundef nonnull %14) #9
  %68 = icmp slt i32 %67, 0
  br i1 %68, label %69, label %check_retval.exit32

69:                                               ; preds = %check_retval.exit30
  %70 = load ptr, ptr @stderr, align 8, !tbaa !4
  %71 = call i32 (ptr, ptr, ...) @fprintf(ptr noundef %70, ptr noundef nonnull @.str.41, ptr noundef nonnull @.str.28, i32 noundef %67) #10
  br label %check_retval.exit32

check_retval.exit32:                              ; preds = %check_retval.exit30, %69
  %72 = call i32 @CVodeGetNumLinConvFails(ptr noundef %0, ptr noundef nonnull %15) #9
  %73 = icmp slt i32 %72, 0
  br i1 %73, label %74, label %check_retval.exit34

74:                                               ; preds = %check_retval.exit32
  %75 = load ptr, ptr @stderr, align 8, !tbaa !4
  %76 = call i32 (ptr, ptr, ...) @fprintf(ptr noundef %75, ptr noundef nonnull @.str.41, ptr noundef nonnull @.str.29, i32 noundef %72) #10
  br label %check_retval.exit34

check_retval.exit34:                              ; preds = %check_retval.exit32, %74
  %77 = call i32 @CVodeGetNumLinRhsEvals(ptr noundef %0, ptr noundef nonnull %16) #9
  %78 = icmp slt i32 %77, 0
  br i1 %78, label %79, label %check_retval.exit36

79:                                               ; preds = %check_retval.exit34
  %80 = load ptr, ptr @stderr, align 8, !tbaa !4
  %81 = call i32 (ptr, ptr, ...) @fprintf(ptr noundef %80, ptr noundef nonnull @.str.41, ptr noundef nonnull @.str.30, i32 noundef %77) #10
  br label %check_retval.exit36

check_retval.exit36:                              ; preds = %check_retval.exit34, %79
  %puts = call i32 @puts(ptr nonnull dereferenceable(1) @str.1)
  %82 = load i64, ptr %2, align 8, !tbaa !30
  %83 = load i64, ptr %3, align 8, !tbaa !30
  %84 = call i32 (ptr, ...) @printf(ptr noundef nonnull dereferenceable(1) @.str.32, i64 noundef %82, i64 noundef %83)
  %85 = load i64, ptr %4, align 8, !tbaa !30
  %86 = load i64, ptr %5, align 8, !tbaa !30
  %87 = call i32 (ptr, ...) @printf(ptr noundef nonnull dereferenceable(1) @.str.33, i64 noundef %85, i64 noundef %86)
  %88 = load i64, ptr %6, align 8, !tbaa !30
  %89 = call i32 (ptr, ...) @printf(ptr noundef nonnull dereferenceable(1) @.str.34, i64 noundef %88)
  %90 = load i64, ptr %7, align 8, !tbaa !30
  %91 = load i64, ptr %16, align 8, !tbaa !30
  %92 = call i32 (ptr, ...) @printf(ptr noundef nonnull dereferenceable(1) @.str.35, i64 noundef %90, i64 noundef %91)
  %93 = load i64, ptr %9, align 8, !tbaa !30
  %94 = load i64, ptr %12, align 8, !tbaa !30
  %95 = call i32 (ptr, ...) @printf(ptr noundef nonnull dereferenceable(1) @.str.36, i64 noundef %93, i64 noundef %94)
  %96 = load i64, ptr %8, align 8, !tbaa !30
  %97 = load i64, ptr %11, align 8, !tbaa !30
  %98 = call i32 (ptr, ...) @printf(ptr noundef nonnull dereferenceable(1) @.str.37, i64 noundef %96, i64 noundef %97)
  %99 = load i64, ptr %13, align 8, !tbaa !30
  %100 = load i64, ptr %14, align 8, !tbaa !30
  %101 = call i32 (ptr, ...) @printf(ptr noundef nonnull dereferenceable(1) @.str.38, i64 noundef %99, i64 noundef %100)
  %102 = load i64, ptr %10, align 8, !tbaa !30
  %103 = load i64, ptr %15, align 8, !tbaa !30
  %104 = call i32 (ptr, ...) @printf(ptr noundef nonnull dereferenceable(1) @.str.39, i64 noundef %102, i64 noundef %103)
  call void @llvm.lifetime.end.p0(i64 8, ptr nonnull %16) #9
  call void @llvm.lifetime.end.p0(i64 8, ptr nonnull %15) #9
  call void @llvm.lifetime.end.p0(i64 8, ptr nonnull %14) #9
  call void @llvm.lifetime.end.p0(i64 8, ptr nonnull %13) #9
  call void @llvm.lifetime.end.p0(i64 8, ptr nonnull %12) #9
  call void @llvm.lifetime.end.p0(i64 8, ptr nonnull %11) #9
  call void @llvm.lifetime.end.p0(i64 8, ptr nonnull %10) #9
  call void @llvm.lifetime.end.p0(i64 8, ptr nonnull %9) #9
  call void @llvm.lifetime.end.p0(i64 8, ptr nonnull %8) #9
  call void @llvm.lifetime.end.p0(i64 8, ptr nonnull %7) #9
  call void @llvm.lifetime.end.p0(i64 8, ptr nonnull %6) #9
  call void @llvm.lifetime.end.p0(i64 8, ptr nonnull %5) #9
  call void @llvm.lifetime.end.p0(i64 8, ptr nonnull %4) #9
  call void @llvm.lifetime.end.p0(i64 8, ptr nonnull %3) #9
  call void @llvm.lifetime.end.p0(i64 8, ptr nonnull %2) #9
  ret void
}